target datalayout = "e-m:e-p270:32:32-p271:32:32-p272:64:64-i64:64-i128:128-f80:128-n8:16:32:64-S128"
target triple = "x86_64-pc-linux-gnu"

%struct.AVFilterContext = type { ptr, ptr, ptr, ptr, ptr, i32, ptr, ptr, i32, ptr, ptr, i32, i32, ptr, ptr, ptr, ptr, i32, ptr, i32, i32 }
%struct.TrimContext = type { ptr, i64, i64, i64, i64, i64, i64, i64, i64, i64, i64, i64, i64, i64, i64, i32, ptr }

; Function Attrs: inlinehint nounwind uwtable
define internal void @ff_outlink_set_status(ptr noundef %0, i32 noundef %1, i64 noundef %2) #6 {
  %4 = alloca ptr, align 8
  %5 = alloca i32, align 4
  %6 = alloca i64, align 8
  store ptr %0, ptr %4, align 8, !tbaa !28
  store i32 %1, ptr %5, align 4, !tbaa !31
  store i64 %2, ptr %6, align 8, !tbaa !36
  %7 = load ptr, ptr %4, align 8, !tbaa !28
  %8 = load i32, ptr %5, align 4, !tbaa !31
  %9 = load i64, ptr %6, align 8, !tbaa !36
  call void @ff_avfilter_link_set_in_status(ptr noundef %7, i32 noundef %8, i64 noundef %9)
  ret void
}

; Function Attrs: nounwind uwtable
define internal i32 @activate(ptr noundef %0) #1 {
  %2 = alloca i32, align 4
  %3 = alloca ptr, align 8
  %4 = alloca ptr, align 8
  %5 = alloca ptr, align 8
  %6 = alloca ptr, align 8
  %7 = alloca i32, align 4
  %8 = alloca i32, align 4
  %9 = alloca ptr, align 8
  %10 = alloca i32, align 4
  %11 = alloca i32, align 4
  %12 = alloca i64, align 8
  store ptr %0, ptr %3, align 8, !tbaa !4
  call void @llvm.lifetime.start.p0(i64 8, ptr %4) #7
  %13 = load ptr, ptr %3, align 8, !tbaa !4
  %14 = getelementptr inbounds nuw %struct.AVFilterContext, ptr %13, i32 0, i32 9
  %15 = load ptr, ptr %14, align 8, !tbaa !9
  store ptr %15, ptr %4, align 8, !tbaa !22
  call void @llvm.lifetime.start.p0(i64 8, ptr %5) #7
  %16 = load ptr, ptr %3, align 8, !tbaa !4
  %17 = getelementptr inbounds nuw %struct.AVFilterContext, ptr %16, i32 0, i32 4
  %18 = load ptr, ptr %17, align 8, !tbaa !27
  %19 = getelementptr inbounds ptr, ptr %18, i64 0
  %20 = load ptr, ptr %19, align 8, !tbaa !28
  store ptr %20, ptr %5, align 8, !tbaa !28
  call void @llvm.lifetime.start.p0(i64 8, ptr %6) #7
  %21 = load ptr, ptr %3, align 8, !tbaa !4
  %22 = getelementptr inbounds nuw %struct.AVFilterContext, ptr %21, i32 0, i32 7
  %23 = load ptr, ptr %22, align 8, !tbaa !30
  %24 = getelementptr inbounds ptr, ptr %23, i64 0
  %25 = load ptr, ptr %24, align 8, !tbaa !28
  store ptr %25, ptr %6, align 8, !tbaa !28
  br label %26

26:                                               ; preds = %1
  call void @llvm.lifetime.start.p0(i64 4, ptr %7) #7
  %27 = load ptr, ptr %6, align 8, !tbaa !28
  %28 = call i32 @ff_outlink_get_status(ptr noundef %27)
  store i32 %28, ptr %7, align 4, !tbaa !31
  %29 = load i32, ptr %7, align 4, !tbaa !31
  %30 = icmp ne i32 %29, 0
  br i1 %30, label %31, label %34

31:                                               ; preds = %26
  %32 = load ptr, ptr %5, align 8, !tbaa !28
  %33 = load i32, ptr %7, align 4, !tbaa !31
  call void @ff_inlink_set_status(ptr noundef %32, i32 noundef %33)
  store i32 0, ptr %2, align 4
  store i32 1, ptr %8, align 4
  br label %35

34:                                               ; preds = %26
  store i32 0, ptr %8, align 4
  br label %35

35:                                               ; preds = %34, %31
  call void @llvm.lifetime.end.p0(i64 4, ptr %7) #7
  %36 = load i32, ptr %8, align 4
  switch i32 %36, label %93 [
    i32 0, label %37
  ]

37:                                               ; preds = %35
  br label %38

38:                                               ; preds = %37
  br label %39

39:                                               ; preds = %38
  %40 = load ptr, ptr %4, align 8, !tbaa !22
  %41 = getelementptr inbounds nuw %struct.TrimContext, ptr %40, i32 0, i32 15
  %42 = load i32, ptr %41, align 8, !tbaa !32
  %43 = icmp ne i32 %42, 0
  br i1 %43, label %69, label %44

44:                                               ; preds = %39
  %45 = load ptr, ptr %5, align 8, !tbaa !28
  %46 = call i64 @ff_inlink_queued_frames(ptr noundef %45)
  %47 = icmp ne i64 %46, 0
  br i1 %47, label %48, label %69

48:                                               ; preds = %44
  call void @llvm.lifetime.start.p0(i64 8, ptr %9) #7
  store ptr null, ptr %9, align 8, !tbaa !33
  call void @llvm.lifetime.start.p0(i64 4, ptr %10) #7
  %49 = load ptr, ptr %5, align 8, !tbaa !28
  %50 = call i32 @ff_inlink_consume_frame(ptr noundef %49, ptr noundef %9)
  store i32 %50, ptr %10, align 4, !tbaa !31
  %51 = load i32, ptr %10, align 4, !tbaa !31
  %52 = icmp slt i32 %51, 0
  br i1 %52, label %53, label %55

53:                                               ; preds = %48
  %54 = load i32, ptr %10, align 4, !tbaa !31
  store i32 %54, ptr %2, align 4
  store i32 1, ptr %8, align 4
  br label %66

55:                                               ; preds = %48
  %56 = load i32, ptr %10, align 4, !tbaa !31
  %57 = icmp sgt i32 %56, 0
  br i1 %57, label %58, label %65

58:                                               ; preds = %55
  %59 = load ptr, ptr %4, align 8, !tbaa !22
  %60 = getelementptr inbounds nuw %struct.TrimContext, ptr %59, i32 0, i32 16
  %61 = load ptr, ptr %60, align 8, !tbaa !35
  %62 = load ptr, ptr %5, align 8, !tbaa !28
  %63 = load ptr, ptr %9, align 8, !tbaa !33
  %64 = call i32 %61(ptr noundef %62, ptr noundef %63)
  store i32 %64, ptr %2, align 4
  store i32 1, ptr %8, align 4
  br label %66

65:                                               ; preds = %55
  store i32 0, ptr %8, align 4
  br label %66

66:                                               ; preds = %65, %58, %53
  call void @llvm.lifetime.end.p0(i64 4, ptr %10) #7
  call void @llvm.lifetime.end.p0(i64 8, ptr %9) #7
  %67 = load i32, ptr %8, align 4
  switch i32 %67, label %93 [
    i32 0, label %68
  ]

68:                                               ; preds = %66
  br label %69

69:                                               ; preds = %68, %44, %39
  br label %70

70:                                               ; preds = %69
  call void @llvm.lifetime.start.p0(i64 4, ptr %11) #7
  call void @llvm.lifetime.start.p0(i64 8, ptr %12) #7
  %71 = load ptr, ptr %5, align 8, !tbaa !28
  %72 = call i32 @ff_inlink_acknowledge_status(ptr noundef %71, ptr noundef %11, ptr noundef %12)
  %73 = icmp ne i32 %72, 0
  br i1 %73, label %74, label %78

74:                                               ; preds = %70
  %75 = load ptr, ptr %6, align 8, !tbaa !28
  %76 = load i32, ptr %11, align 4, !tbaa !31
  %77 = load i64, ptr %12, align 8, !tbaa !36
  call void @ff_outlink_set_status(ptr noundef %75, i32 noundef %76, i64 noundef %77)
  store i32 0, ptr %2, align 4
  store i32 1, ptr %8, align 4
  br label %79

78:                                               ; preds = %70
  store i32 0, ptr %8, align 4
  br label %79

79:                                               ; preds = %78, %74
  call void @llvm.lifetime.end.p0(i64 8, ptr %12) #7
  call void @llvm.lifetime.end.p0(i64 4, ptr %11) #7
  %80 = load i32, ptr %8, align 4
  switch i32 %80, label %93 [
    i32 0, label %81
  ]

81:                                               ; preds = %79
  br label %82

82:                                               ; preds = %81
  br label %83

83:                                               ; preds = %82
  br label %84

84:                                               ; preds = %83
  %85 = load ptr, ptr %6, align 8, !tbaa !28
  %86 = call i32 @ff_outlink_frame_wanted(ptr noundef %85)
  %87 = icmp ne i32 %86, 0
  br i1 %87, label %88, label %90

88:                                               ; preds = %84
  %89 = load ptr, ptr %5, align 8, !tbaa !28
  call void @ff_inlink_request_frame(ptr noundef %89)
  store i32 0, ptr %2, align 4
  store i32 1, ptr %8, align 4
  br label %93

90:                                               ; preds = %84
  br label %91

91:                                               ; preds = %90
  br label %92

92:                                               ; preds = %91
  store i32 -1497649742, ptr %2, align 4
  store i32 1, ptr %8, align 4
  br label %93

93:                                               ; preds = %92, %88, %79, %66, %35
  call void @llvm.lifetime.end.p0(i64 8, ptr %6) #7
  call void @llvm.lifetime.end.p0(i64 8, ptr %5) #7
  call void @llvm.lifetime.end.p0(i64 8, ptr %4) #7
  %94 = load i32, ptr %2, align 4
  ret i32 %94
}