; Function Attrs: nounwind uwtable
define internal i32 @activate(ptr noundef readonly captures(none) %0) #1 {
  %2 = alloca ptr, align 8
  %3 = alloca i32, align 4
  %4 = alloca i64, align 8
  %5 = getelementptr inbounds nuw i8, ptr %0, i64 72
  %6 = load ptr, ptr %5, align 8, !tbaa !4
  %7 = getelementptr inbounds nuw i8, ptr %0, i64 32
  %8 = load ptr, ptr %7, align 8, !tbaa !23
  %9 = load ptr, ptr %8, align 8, !tbaa !24
  %10 = getelementptr inbounds nuw i8, ptr %0, i64 56
  %11 = load ptr, ptr %10, align 8, !tbaa !26
  %12 = load ptr, ptr %11, align 8, !tbaa !24
  %13 = tail call i32 @ff_outlink_get_status(ptr noundef %12) #7
  %.not = icmp eq i32 %13, 0
  br i1 %.not, label %.critedge, label %14

14:                                               ; preds = %1
  tail call void @ff_inlink_set_status(ptr noundef %9, i32 noundef %13) #7
  br label %37

.critedge:                                        ; preds = %1
  %15 = getelementptr inbounds nuw i8, ptr %6, i64 120
  %16 = load i32, ptr %15, align 8, !tbaa !27
  %.not29 = icmp eq i32 %16, 0
  br i1 %.not29, label %17, label %29

17:                                               ; preds = %.critedge
  %18 = tail call i64 @ff_inlink_queued_frames(ptr noundef %9) #7
  %.not30 = icmp eq i64 %18, 0
  br i1 %.not30, label %29, label %19

19:                                               ; preds = %17
  call void @llvm.lifetime.start.p0(i64 8, ptr nonnull %2) #7
  store ptr null, ptr %2, align 8, !tbaa !28
  %20 = call i32 @ff_inlink_consume_frame(ptr noundef %9, ptr noundef nonnull %2) #7
  %21 = icmp slt i32 %20, 0
  br i1 %21, label %.thread, label %22

22:                                               ; preds = %19
  %.not31 = icmp eq i32 %20, 0
  br i1 %.not31, label %28, label %23

23:                                               ; preds = %22
  %24 = getelementptr inbounds nuw i8, ptr %6, i64 128
  %25 = load ptr, ptr %24, align 8, !tbaa !30
  %26 = load ptr, ptr %2, align 8, !tbaa !28
  %27 = call i32 %25(ptr noundef %9, ptr noundef %26) #7
  br label %.thread

.thread:                                          ; preds = %23, %19
  %.2.ph = phi i32 [ %20, %19 ], [ %27, %23 ]
  call void @llvm.lifetime.end.p0(i64 8, ptr nonnull %2) #7
  br label %37

28:                                               ; preds = %22
  call void @llvm.lifetime.end.p0(i64 8, ptr nonnull %2) #7
  br label %29

29:                                               ; preds = %28, %.critedge, %17
  call void @llvm.lifetime.start.p0(i64 4, ptr nonnull %3) #7
  call void @llvm.lifetime.start.p0(i64 8, ptr nonnull %4) #7
  %30 = call i32 @ff_inlink_acknowledge_status(ptr noundef %9, ptr noundef nonnull %3, ptr noundef nonnull %4) #7
  %.not32 = icmp eq i32 %30, 0
  br i1 %.not32, label %34, label %31

31:                                               ; preds = %29
  %32 = load i32, ptr %3, align 4, !tbaa !31
  %33 = load i64, ptr %4, align 8, !tbaa !32
  call void @ff_avfilter_link_set_in_status(ptr noundef %12, i32 noundef %32, i64 noundef %33) #7
  call void @llvm.lifetime.end.p0(i64 8, ptr nonnull %4) #7
  call void @llvm.lifetime.end.p0(i64 4, ptr nonnull %3) #7
  br label %37

34:                                               ; preds = %29
  call void @llvm.lifetime.end.p0(i64 8, ptr nonnull %4) #7
  call void @llvm.lifetime.end.p0(i64 4, ptr nonnull %3) #7
  %35 = call i32 @ff_outlink_frame_wanted(ptr noundef %12) #7
  %.not33 = icmp eq i32 %35, 0
  br i1 %.not33, label %37, label %36

36:                                               ; preds = %34
  call void @ff_inlink_request_frame(ptr noundef %9) #7
  br label %37

37:                                               ; preds = %31, %.thread, %14, %34, %36
  %.1 = phi i32 [ 0, %36 ], [ 0, %31 ], [ 0, %14 ], [ -1497649742, %34 ], [ %.2.ph, %.thread ]
  ret i32 %.1
}